target datalayout = "e-m:e-p270:32:32-p271:32:32-p272:64:64-i64:64-i128:128-f80:128-n8:16:32:64-S128"
target triple = "x86_64-pc-linux-gnu"

%"class.std::vector" = type { %"struct.std::_Vector_base" }
%"struct.std::_Vector_base" = type { %"struct.std::_Vector_base<const Variable *, std::allocator<const Variable *>>::_Vector_impl" }
%"struct.std::_Vector_base<const Variable *, std::allocator<const Variable *>>::_Vector_impl" = type { %"struct.std::_Vector_base<const Variable *, std::allocator<const Variable *>>::_Vector_impl_data" }
%"struct.std::_Vector_base<const Variable *, std::allocator<const Variable *>>::_Vector_impl_data" = type { ptr, ptr, ptr }
%class.CGContext = type { ptr, i32, i32, i32, %"class.std::vector.0", ptr, ptr, %"class.std::map", ptr, ptr, ptr, %class.Effect }
%"class.std::vector.0" = type { %"struct.std::_Vector_base.1" }
%"struct.std::_Vector_base.1" = type { %"struct.std::_Vector_base<const Block *, std::allocator<const Block *>>::_Vector_impl" }
%"struct.std::_Vector_base<const Block *, std::allocator<const Block *>>::_Vector_impl" = type { %"struct.std::_Vector_base<const Block *, std::allocator<const Block *>>::_Vector_impl_data" }
%"struct.std::_Vector_base<const Block *, std::allocator<const Block *>>::_Vector_impl_data" = type { ptr, ptr, ptr }
%"class.std::map" = type { %"class.std::_Rb_tree" }
%"class.std::_Rb_tree" = type { %"struct.std::_Rb_tree<const Variable *, std::pair<const Variable *const, unsigned int>, std::_Select1st<std::pair<const Variable *const, unsigned int>>, std::less<const Variable *>>::_Rb_tree_impl" }
%"struct.std::_Rb_tree<const Variable *, std::pair<const Variable *const, unsigned int>, std::_Select1st<std::pair<const Variable *const, unsigned int>>, std::less<const Variable *>>::_Rb_tree_impl" = type { %"struct.std::_Rb_tree_key_compare", %"struct.std::_Rb_tree_header" }
%"struct.std::_Rb_tree_key_compare" = type { %"struct.std::less" }
%"struct.std::less" = type { i8 }
%"struct.std::_Rb_tree_header" = type { %"struct.std::_Rb_tree_node_base", i64 }
%"struct.std::_Rb_tree_node_base" = type { i32, ptr, ptr, ptr }
%class.Effect = type <{ %"class.std::vector", %"class.std::vector", %"class.std::vector", i8, i8, [6 x i8] }>

; Function Attrs: mustprogress nounwind uwtable
define dso_local void @_ZN9CGContext12sanity_checkEv(ptr noundef nonnull align 8 dereferenceable(216) %0) #4 align 2 {
  %2 = alloca ptr, align 8
  store ptr %0, ptr %2, align 8
  ret void
}

; Function Attrs: mustprogress uwtable
define dso_local void @_ZN9CGContext10add_effectERK6Effectb(ptr noundef nonnull align 8 dereferenceable(216) %0, ptr noundef nonnull align 8 dereferenceable(74) %1, i1 noundef zeroext %2) #5 align 2 {
  %4 = alloca ptr, align 8
  %5 = alloca ptr, align 8
  %6 = alloca i8, align 1
  store ptr %0, ptr %4, align 8
  store ptr %1, ptr %5, align 8
  %7 = zext i1 %2 to i8
  store i8 %7, ptr %6, align 1
  %8 = load ptr, ptr %4, align 8
  %9 = getelementptr inbounds %class.CGContext, ptr %8, i32 0, i32 10
  %10 = load ptr, ptr %9, align 8
  %11 = icmp ne ptr %10, null
  br i1 %11, label %12, label %18

12:                                               ; preds = %3
  %13 = getelementptr inbounds %class.CGContext, ptr %8, i32 0, i32 10
  %14 = load ptr, ptr %13, align 8
  %15 = load ptr, ptr %5, align 8
  %16 = load i8, ptr %6, align 1
  %17 = trunc i8 %16 to i1
  call void @_ZN6Effect10add_effectERKS_b(ptr noundef nonnull align 8 dereferenceable(74) %14, ptr noundef nonnull align 8 dereferenceable(74) %15, i1 noundef zeroext %17)
  br label %18

18:                                               ; preds = %12, %3
  %19 = getelementptr inbounds %class.CGContext, ptr %8, i32 0, i32 11
  %20 = load ptr, ptr %5, align 8
  call void @_ZN6Effect10add_effectERKS_b(ptr noundef nonnull align 8 dereferenceable(74) %19, ptr noundef nonnull align 8 dereferenceable(74) %20, i1 noundef zeroext false)
  call void @_ZN9CGContext12sanity_checkEv(ptr noundef nonnull align 8 dereferenceable(216) %8)
  ret void
}

; Function Attrs: mustprogress nounwind uwtable
define linkonce_odr dso_local noundef ptr @_ZNK9CGContext16get_effect_accumEv(ptr noundef nonnull align 8 dereferenceable(216) %0) #4 comdat align 2 {
  %2 = alloca ptr, align 8
  store ptr %0, ptr %2, align 8
  %3 = load ptr, ptr %2, align 8
  %4 = getelementptr inbounds %class.CGContext, ptr %3, i32 0, i32 10
  %5 = load ptr, ptr %4, align 8
  ret ptr %5
}

; Function Attrs: mustprogress uwtable
define dso_local void @_ZN9CGContext19merge_param_contextERKS_b(ptr noundef nonnull align 8 dereferenceable(216) %0, ptr noundef nonnull align 8 dereferenceable(216) %1, i1 noundef zeroext %2) #5 align 2 {
  %4 = alloca ptr, align 8
  %5 = alloca ptr, align 8
  %6 = alloca i8, align 1
  store ptr %0, ptr %4, align 8
  store ptr %1, ptr %5, align 8
  %7 = zext i1 %2 to i8
  store i8 %7, ptr %6, align 1
  %8 = load ptr, ptr %4, align 8
  %9 = load ptr, ptr %5, align 8
  %10 = call noundef ptr @_ZNK9CGContext16get_effect_accumEv(ptr noundef nonnull align 8 dereferenceable(216) %9)
  %11 = load i8, ptr %6, align 1
  %12 = trunc i8 %11 to i1
  call void @_ZN9CGContext10add_effectERK6Effectb(ptr noundef nonnull align 8 dereferenceable(216) %8, ptr noundef nonnull align 8 dereferenceable(74) %10, i1 noundef zeroext %12)
  %13 = load ptr, ptr %5, align 8
  %14 = getelementptr inbounds %class.CGContext, ptr %13, i32 0, i32 2
  %15 = load i32, ptr %14, align 4
  %16 = getelementptr inbounds %class.CGContext, ptr %8, i32 0, i32 2
  store i32 %15, ptr %16, align 4
  ret void
}