; Function Attrs: mustprogress uwtable
define dso_local void @_ZN9CGContext19merge_param_contextERKS_b(ptr noundef nonnull align 8 dereferenceable(216) %0, ptr noundef nonnull readonly align 8 captures(none) dereferenceable(216) %1, i1 noundef zeroext %2) local_unnamed_addr #4 align 2 {
  %4 = getelementptr inbounds nuw i8, ptr %1, i64 128
  %5 = load ptr, ptr %4, align 8
  %6 = getelementptr inbounds nuw i8, ptr %0, i64 128
  %7 = load ptr, ptr %6, align 8
  %.not.i = icmp eq ptr %7, null
  br i1 %.not.i, label %_ZN9CGContext10add_effectERK6Effectb.exit, label %8

8:                                                ; preds = %3
  tail call void @_ZN6Effect10add_effectERKS_b(ptr noundef nonnull align 8 dereferenceable(74) %7, ptr noundef nonnull align 8 dereferenceable(74) %5, i1 noundef zeroext %2)
  br label %_ZN9CGContext10add_effectERK6Effectb.exit

_ZN9CGContext10add_effectERK6Effectb.exit:        ; preds = %3, %8
  %9 = getelementptr inbounds nuw i8, ptr %0, i64 136
  tail call void @_ZN6Effect10add_effectERKS_b(ptr noundef nonnull align 8 dereferenceable(74) %9, ptr noundef nonnull align 8 dereferenceable(74) %5, i1 noundef zeroext false)
  %10 = getelementptr inbounds nuw i8, ptr %1, i64 12
  %11 = load i32, ptr %10, align 4
  %12 = getelementptr inbounds nuw i8, ptr %0, i64 12
  store i32 %11, ptr %12, align 4
  ret void
}